; Function Attrs: mustprogress uwtable
define void @_ZNK5faiss15IndexPQFastScan17compute_float_LUTEPflPKf(ptr noundef nonnull align 8 dereferenceable(344) %0, ptr noundef %1, i64 noundef %2, ptr noundef %3) unnamed_addr #1 align 2 {
  %5 = getelementptr inbounds i8, ptr %0, i64 28
  %6 = load i32, ptr %5, align 4
  %7 = icmp eq i32 %6, 1
  %8 = getelementptr inbounds i8, ptr %0, i64 136
  br i1 %7, label %9, label %10

9:                                                ; preds = %4
  tail call void @_ZNK5faiss16ProductQuantizer23compute_distance_tablesEmPKfPf(ptr noundef nonnull align 8 dereferenceable(208) %8, i64 noundef %2, ptr noundef %3, ptr noundef %1)
  br label %11

10:                                               ; preds = %4
  tail call void @_ZNK5faiss16ProductQuantizer25compute_inner_prod_tablesEmPKfPf(ptr noundef nonnull align 8 dereferenceable(208) %8, i64 noundef %2, ptr noundef %3, ptr noundef %1)
  br label %11

11:                                               ; preds = %10, %9
  ret void
}